target datalayout = "e-m:e-p270:32:32-p271:32:32-p272:64:64-i64:64-i128:128-f80:128-n8:16:32:64-S128"
target triple = "x86_64-pc-linux-gnu"

%"class.google::protobuf::RepeatedField" = type { i32, i32, ptr }

; Function Attrs: inlinehint mustprogress nounwind uwtable
define linkonce_odr hidden noundef i32 @_ZN6google8protobuf8internal14WireFormatLite14ZigZagEncode32Ei(i32 noundef %0) #5 comdat align 2 {
  %2 = alloca i32, align 4
  store i32 %0, ptr %2, align 4, !tbaa !8
  %3 = load i32, ptr %2, align 4, !tbaa !8
  %4 = shl i32 %3, 1
  %5 = load i32, ptr %2, align 4, !tbaa !8
  %6 = ashr i32 %5, 31
  %7 = xor i32 %4, %6
  ret i32 %7
}

; Function Attrs: mustprogress nounwind uwtable
define available_externally noundef ptr @_ZNK6google8protobuf13RepeatedFieldIiE15unsafe_elementsEv(ptr noundef nonnull align 8 dereferenceable(16) %0) #8 align 2 {
  %2 = alloca ptr, align 8
  store ptr %0, ptr %2, align 8, !tbaa !54
  %3 = load ptr, ptr %2, align 8
  %4 = getelementptr inbounds nuw %"class.google::protobuf::RepeatedField", ptr %3, i32 0, i32 2
  %5 = load ptr, ptr %4, align 8, !tbaa !129
  ret ptr %5
}

; Function Attrs: mustprogress nounwind uwtable
define internal noundef i64 @_ZN6google8protobuf8internalL10VarintSizeILb1ELb0EiEEmPKT1_i(ptr noundef %0, i32 noundef %1) #8 {
  %3 = alloca ptr, align 8
  %4 = alloca i32, align 4
  %5 = alloca i32, align 4
  %6 = alloca i32, align 4
  %7 = alloca i32, align 4
  %8 = alloca i32, align 4
  store ptr %0, ptr %3, align 8, !tbaa !28
  store i32 %1, ptr %4, align 4, !tbaa !8
  call void @llvm.lifetime.start.p0(i64 4, ptr %5) #3
  %9 = load i32, ptr %4, align 4, !tbaa !8
  store i32 %9, ptr %5, align 4, !tbaa !8
  call void @llvm.lifetime.start.p0(i64 4, ptr %6) #3
  store i32 0, ptr %6, align 4, !tbaa !8
  call void @llvm.lifetime.start.p0(i64 4, ptr %7) #3
  store i32 0, ptr %7, align 4, !tbaa !8
  br label %10

10:                                               ; preds = %47, %2
  %11 = load i32, ptr %7, align 4, !tbaa !8
  %12 = load i32, ptr %4, align 4, !tbaa !8
  %13 = icmp slt i32 %11, %12
  br i1 %13, label %15, label %14

14:                                               ; preds = %10
  call void @llvm.lifetime.end.p0(i64 4, ptr %7) #3
  br label %50

15:                                               ; preds = %10
  call void @llvm.lifetime.start.p0(i64 4, ptr %8) #3
  %16 = load ptr, ptr %3, align 8, !tbaa !28
  %17 = load i32, ptr %7, align 4, !tbaa !8
  %18 = sext i32 %17 to i64
  %19 = getelementptr inbounds i32, ptr %16, i64 %18
  %20 = load i32, ptr %19, align 4, !tbaa !8
  store i32 %20, ptr %8, align 4, !tbaa !8
  %21 = load i32, ptr %8, align 4, !tbaa !8
  %22 = call noundef i32 @_ZN6google8protobuf8internal14WireFormatLite14ZigZagEncode32Ei(i32 noundef %21)
  store i32 %22, ptr %8, align 4, !tbaa !8
  %23 = load i32, ptr %8, align 4, !tbaa !8
  %24 = icmp ugt i32 %23, 127
  br i1 %24, label %25, label %28

25:                                               ; preds = %15
  %26 = load i32, ptr %5, align 4, !tbaa !8
  %27 = add i32 %26, 1
  store i32 %27, ptr %5, align 4, !tbaa !8
  br label %28

28:                                               ; preds = %25, %15
  %29 = load i32, ptr %8, align 4, !tbaa !8
  %30 = icmp ugt i32 %29, 16383
  br i1 %30, label %31, label %34

31:                                               ; preds = %28
  %32 = load i32, ptr %5, align 4, !tbaa !8
  %33 = add i32 %32, 1
  store i32 %33, ptr %5, align 4, !tbaa !8
  br label %34

34:                                               ; preds = %31, %28
  %35 = load i32, ptr %8, align 4, !tbaa !8
  %36 = icmp ugt i32 %35, 2097151
  br i1 %36, label %37, label %40

37:                                               ; preds = %34
  %38 = load i32, ptr %5, align 4, !tbaa !8
  %39 = add i32 %38, 1
  store i32 %39, ptr %5, align 4, !tbaa !8
  br label %40

40:                                               ; preds = %37, %34
  %41 = load i32, ptr %8, align 4, !tbaa !8
  %42 = icmp ugt i32 %41, 268435455
  br i1 %42, label %43, label %46

43:                                               ; preds = %40
  %44 = load i32, ptr %5, align 4, !tbaa !8
  %45 = add i32 %44, 1
  store i32 %45, ptr %5, align 4, !tbaa !8
  br label %46

46:                                               ; preds = %43, %40
  call void @llvm.lifetime.end.p0(i64 4, ptr %8) #3
  br label %47

47:                                               ; preds = %46
  %48 = load i32, ptr %7, align 4, !tbaa !8
  %49 = add nsw i32 %48, 1
  store i32 %49, ptr %7, align 4, !tbaa !8
  br label %10, !llvm.loop !92

50:                                               ; preds = %14
  %51 = load i32, ptr %5, align 4, !tbaa !8
  %52 = zext i32 %51 to i64
  call void @llvm.lifetime.end.p0(i64 4, ptr %6) #3
  call void @llvm.lifetime.end.p0(i64 4, ptr %5) #3
  ret i64 %52
}

; Function Attrs: inlinehint mustprogress nounwind uwtable
define available_externally noundef i32 @_ZNK6google8protobuf13RepeatedFieldIiE4sizeEv(ptr noundef nonnull align 8 dereferenceable(16) %0) #5 align 2 {
  %2 = alloca ptr, align 8
  store ptr %0, ptr %2, align 8, !tbaa !54
  %3 = load ptr, ptr %2, align 8
  %4 = getelementptr inbounds nuw %"class.google::protobuf::RepeatedField", ptr %3, i32 0, i32 0
  %5 = load i32, ptr %4, align 8, !tbaa !57
  ret i32 %5
}

; Function Attrs: inlinehint mustprogress nounwind uwtable
define available_externally noundef ptr @_ZNK6google8protobuf13RepeatedFieldIiE4dataEv(ptr noundef nonnull align 8 dereferenceable(16) %0) #5 align 2 {
  %2 = alloca ptr, align 8
  store ptr %0, ptr %2, align 8, !tbaa !54
  %3 = load ptr, ptr %2, align 8
  %4 = call noundef ptr @_ZNK6google8protobuf13RepeatedFieldIiE15unsafe_elementsEv(ptr noundef nonnull align 8 dereferenceable(16) %3)
  ret ptr %4
}

; Function Attrs: mustprogress uwtable
define hidden noundef i64 @_ZN6google8protobuf8internal14WireFormatLite10SInt32SizeERKNS0_13RepeatedFieldIiEE(ptr noundef nonnull align 8 dereferenceable(16) %0) #4 align 2 {
  %2 = alloca ptr, align 8
  store ptr %0, ptr %2, align 8, !tbaa !54
  %3 = load ptr, ptr %2, align 8, !tbaa !54
  %4 = call noundef ptr @_ZNK6google8protobuf13RepeatedFieldIiE4dataEv(ptr noundef nonnull align 8 dereferenceable(16) %3)
  %5 = load ptr, ptr %2, align 8, !tbaa !54
  %6 = call noundef i32 @_ZNK6google8protobuf13RepeatedFieldIiE4sizeEv(ptr noundef nonnull align 8 dereferenceable(16) %5)
  %7 = call noundef i64 @_ZN6google8protobuf8internalL10VarintSizeILb1ELb0EiEEmPKT1_i(ptr noundef %4, i32 noundef %6)
  ret i64 %7
}