; Function Attrs: mustprogress nofree norecurse nosync nounwind willreturn memory(read, inaccessiblemem: none) uwtable
define hidden noundef range(i64 0, 4294967296) i64 @_ZN6google8protobuf8internal14WireFormatLite10SInt32SizeERKNS0_13RepeatedFieldIiEE(ptr noundef nonnull readonly align 8 captures(none) dereferenceable(16) %0) local_unnamed_addr #7 align 2 {
  %2 = getelementptr inbounds nuw i8, ptr %0, i64 8
  %3 = load ptr, ptr %2, align 8, !tbaa !44
  %4 = load i32, ptr %0, align 8, !tbaa !41
  %5 = icmp sgt i32 %4, 0
  br i1 %5, label %.lr.ph.preheader.i, label %_ZN6google8protobuf8internalL10VarintSizeILb1ELb0EiEEmPKT1_i.exit

.lr.ph.preheader.i:                               ; preds = %1
  %wide.trip.count.i = zext nneg i32 %4 to i64
  br label %.lr.ph.i

.lr.ph.i:                                         ; preds = %.lr.ph.i, %.lr.ph.preheader.i
  %indvars.iv.i = phi i64 [ 0, %.lr.ph.preheader.i ], [ %indvars.iv.next.i, %.lr.ph.i ]
  %.01516.i = phi i32 [ %4, %.lr.ph.preheader.i ], [ %.4.i, %.lr.ph.i ]
  %6 = getelementptr inbounds nuw i32, ptr %3, i64 %indvars.iv.i
  %7 = load i32, ptr %6, align 4, !tbaa !36
  %8 = shl i32 %7, 1
  %9 = ashr i32 %7, 31
  %10 = xor i32 %8, %9
  %11 = icmp ugt i32 %10, 127
  %12 = zext i1 %11 to i32
  %spec.select.i = add i32 %.01516.i, %12
  %13 = icmp ugt i32 %10, 16383
  %14 = zext i1 %13 to i32
  %.2.i = add i32 %spec.select.i, %14
  %15 = icmp ugt i32 %10, 2097151
  %16 = zext i1 %15 to i32
  %.3.i = add i32 %.2.i, %16
  %17 = icmp ugt i32 %10, 268435455
  %18 = zext i1 %17 to i32
  %.4.i = add i32 %.3.i, %18
  %indvars.iv.next.i = add nuw nsw i64 %indvars.iv.i, 1
  %exitcond.not.i = icmp eq i64 %indvars.iv.next.i, %wide.trip.count.i
  br i1 %exitcond.not.i, label %_ZN6google8protobuf8internalL10VarintSizeILb1ELb0EiEEmPKT1_i.exit, label %.lr.ph.i, !llvm.loop !57

_ZN6google8protobuf8internalL10VarintSizeILb1ELb0EiEEmPKT1_i.exit: ; preds = %.lr.ph.i, %1
  %.015.lcssa.i = phi i32 [ %4, %1 ], [ %.4.i, %.lr.ph.i ]
  %19 = zext i32 %.015.lcssa.i to i64
  ret i64 %19
}